target datalayout = "e-m:e-p270:32:32-p271:32:32-p272:64:64-i64:64-i128:128-f80:128-n8:16:32:64-S128"
target triple = "x86_64-pc-linux-gnu"

%"class.draco::DecoderBuffer" = type <{ ptr, i64, i64, %"class.draco::DecoderBuffer::BitDecoder", i8, i8, i16, [4 x i8] }>
%"class.draco::DecoderBuffer::BitDecoder" = type { ptr, ptr, i64 }

; Function Attrs: mustprogress nounwind uwtable
define linkonce_odr noundef zeroext i1 @_ZN5draco13DecoderBuffer4PeekIhEEbPT_(ptr noundef nonnull align 8 dereferenceable(52) %0, ptr noundef %1) #5 comdat align 2 {
  %3 = alloca i1, align 1
  %4 = alloca ptr, align 8
  %5 = alloca ptr, align 8
  %6 = alloca i64, align 8
  %7 = alloca i32, align 4
  store ptr %0, ptr %4, align 8, !tbaa !3
  store ptr %1, ptr %5, align 8, !tbaa !19
  %8 = load ptr, ptr %4, align 8
  call void @llvm.lifetime.start.p0(i64 8, ptr %6) #3
  store i64 1, ptr %6, align 8, !tbaa !20
  %9 = getelementptr inbounds nuw %"class.draco::DecoderBuffer", ptr %8, i32 0, i32 1
  %10 = load i64, ptr %9, align 8, !tbaa !15
  %11 = getelementptr inbounds nuw %"class.draco::DecoderBuffer", ptr %8, i32 0, i32 2
  %12 = load i64, ptr %11, align 8, !tbaa !16
  %13 = add i64 %12, 1
  %14 = icmp slt i64 %10, %13
  br i1 %14, label %15, label %16

15:                                               ; preds = %2
  store i1 false, ptr %3, align 1
  store i32 1, ptr %7, align 4
  br label %23

16:                                               ; preds = %2
  %17 = load ptr, ptr %5, align 8, !tbaa !19
  %18 = getelementptr inbounds nuw %"class.draco::DecoderBuffer", ptr %8, i32 0, i32 0
  %19 = load ptr, ptr %18, align 8, !tbaa !8
  %20 = getelementptr inbounds nuw %"class.draco::DecoderBuffer", ptr %8, i32 0, i32 2
  %21 = load i64, ptr %20, align 8, !tbaa !16
  %22 = getelementptr inbounds i8, ptr %19, i64 %21
  call void @llvm.memcpy.p0.p0.i64(ptr align 1 %17, ptr align 1 %22, i64 1, i1 false)
  store i1 true, ptr %3, align 1
  store i32 1, ptr %7, align 4
  br label %23

23:                                               ; preds = %16, %15
  call void @llvm.lifetime.end.p0(i64 8, ptr %6) #3
  %24 = load i1, ptr %3, align 1
  ret i1 %24
}

; Function Attrs: mustprogress uwtable
define linkonce_odr noundef zeroext i1 @_ZN5draco13DecoderBuffer6DecodeIhEEbPT_(ptr noundef nonnull align 8 dereferenceable(52) %0, ptr noundef %1) #4 comdat align 2 {
  %3 = alloca i1, align 1
  %4 = alloca ptr, align 8
  %5 = alloca ptr, align 8
  store ptr %0, ptr %4, align 8, !tbaa !3
  store ptr %1, ptr %5, align 8, !tbaa !19
  %6 = load ptr, ptr %4, align 8
  %7 = load ptr, ptr %5, align 8, !tbaa !19
  %8 = call noundef zeroext i1 @_ZN5draco13DecoderBuffer4PeekIhEEbPT_(ptr noundef nonnull align 8 dereferenceable(52) %6, ptr noundef %7)
  br i1 %8, label %10, label %9

9:                                                ; preds = %2
  store i1 false, ptr %3, align 1
  br label %14

10:                                               ; preds = %2
  %11 = getelementptr inbounds nuw %"class.draco::DecoderBuffer", ptr %6, i32 0, i32 2
  %12 = load i64, ptr %11, align 8, !tbaa !16
  %13 = add i64 %12, 1
  store i64 %13, ptr %11, align 8, !tbaa !16
  store i1 true, ptr %3, align 1
  br label %14

14:                                               ; preds = %10, %9
  %15 = load i1, ptr %3, align 1
  ret i1 %15
}

; Function Attrs: mustprogress uwtable
define internal noundef zeroext i1 @_ZN5draco12_GLOBAL__N_120DecodeVarintUnsignedImEEbiPT_PNS_13DecoderBufferE(i32 noundef %0, ptr noundef %1, ptr noundef %2) #4 {
  %4 = alloca i1, align 1
  %5 = alloca i32, align 4
  %6 = alloca ptr, align 8
  %7 = alloca ptr, align 8
  %8 = alloca i64, align 8
  %9 = alloca i32, align 4
  %10 = alloca i8, align 1
  store i32 %0, ptr %5, align 4, !tbaa !33
  store ptr %1, ptr %6, align 8, !tbaa !23
  store ptr %2, ptr %7, align 8, !tbaa !3
  call void @llvm.lifetime.start.p0(i64 8, ptr %8) #3
  store i64 10, ptr %8, align 8, !tbaa !20
  %11 = load i32, ptr %5, align 4, !tbaa !33
  %12 = sext i32 %11 to i64
  %13 = icmp ugt i64 %12, 10
  br i1 %13, label %14, label %15

14:                                               ; preds = %3
  store i1 false, ptr %4, align 1
  store i32 1, ptr %9, align 4
  br label %48

15:                                               ; preds = %3
  call void @llvm.lifetime.start.p0(i64 1, ptr %10) #3
  %16 = load ptr, ptr %7, align 8, !tbaa !3
  %17 = call noundef zeroext i1 @_ZN5draco13DecoderBuffer6DecodeIhEEbPT_(ptr noundef nonnull align 8 dereferenceable(52) %16, ptr noundef %10)
  br i1 %17, label %19, label %18

18:                                               ; preds = %15
  store i1 false, ptr %4, align 1
  store i32 1, ptr %9, align 4
  br label %47

19:                                               ; preds = %15
  %20 = load i8, ptr %10, align 1, !tbaa !35
  %21 = zext i8 %20 to i32
  %22 = and i32 %21, 128
  %23 = icmp ne i32 %22, 0
  br i1 %23, label %24, label %42

24:                                               ; preds = %19
  %25 = load i32, ptr %5, align 4, !tbaa !33
  %26 = add nsw i32 %25, 1
  %27 = load ptr, ptr %6, align 8, !tbaa !23
  %28 = load ptr, ptr %7, align 8, !tbaa !3
  %29 = call noundef zeroext i1 @_ZN5draco12_GLOBAL__N_120DecodeVarintUnsignedImEEbiPT_PNS_13DecoderBufferE(i32 noundef %26, ptr noundef %27, ptr noundef %28)
  br i1 %29, label %31, label %30

30:                                               ; preds = %24
  store i1 false, ptr %4, align 1
  store i32 1, ptr %9, align 4
  br label %47

31:                                               ; preds = %24
  %32 = load ptr, ptr %6, align 8, !tbaa !23
  %33 = load i64, ptr %32, align 8, !tbaa !20
  %34 = shl i64 %33, 7
  store i64 %34, ptr %32, align 8, !tbaa !20
  %35 = load i8, ptr %10, align 1, !tbaa !35
  %36 = zext i8 %35 to i32
  %37 = and i32 %36, 127
  %38 = sext i32 %37 to i64
  %39 = load ptr, ptr %6, align 8, !tbaa !23
  %40 = load i64, ptr %39, align 8, !tbaa !20
  %41 = or i64 %40, %38
  store i64 %41, ptr %39, align 8, !tbaa !20
  br label %46

42:                                               ; preds = %19
  %43 = load i8, ptr %10, align 1, !tbaa !35
  %44 = zext i8 %43 to i64
  %45 = load ptr, ptr %6, align 8, !tbaa !23
  store i64 %44, ptr %45, align 8, !tbaa !20
  br label %46

46:                                               ; preds = %42, %31
  store i1 true, ptr %4, align 1
  store i32 1, ptr %9, align 4
  br label %47

47:                                               ; preds = %46, %30, %18
  call void @llvm.lifetime.end.p0(i64 1, ptr %10) #3
  br label %48

48:                                               ; preds = %47, %14
  call void @llvm.lifetime.end.p0(i64 8, ptr %8) #3
  %49 = load i1, ptr %4, align 1
  ret i1 %49
}